target datalayout = "e-m:e-p270:32:32-p271:32:32-p272:64:64-i64:64-i128:128-f80:128-n8:16:32:64-S128"
target triple = "x86_64-pc-linux-gnu"

%struct.t_atoms = type { i32, ptr, ptr, ptr, ptr, i32, ptr, ptr, i8, i8, i8, i8, i8 }

@.str.29 = private unnamed_addr constant [122 x i8] c"generated/home/dtcxzyw/WorkSpace/Projects/compilers/llvm-opt-benchmark/bench/gromacs/gromacs/src/gromacs/fileio/pdbio.cpp\00", align 1
@.str.34 = private unnamed_addr constant [6 x i8] c"index\00", align 1

; Function Attrs: inlinehint mustprogress uwtable
define internal void @_ZL14gmx_sfree_implIiEvPKcS1_iPT_(ptr noundef %0, ptr noundef %1, i32 noundef %2, ptr noundef %3) #5 {
  %5 = alloca ptr, align 8
  %6 = alloca ptr, align 8
  %7 = alloca i32, align 4
  %8 = alloca ptr, align 8
  store ptr %0, ptr %5, align 8, !tbaa !8
  store ptr %1, ptr %6, align 8, !tbaa !8
  store i32 %2, ptr %7, align 4, !tbaa !21
  store ptr %3, ptr %8, align 8, !tbaa !26
  %9 = load ptr, ptr %5, align 8, !tbaa !8
  %10 = load ptr, ptr %6, align 8, !tbaa !8
  %11 = load i32, ptr %7, align 4, !tbaa !21
  %12 = load ptr, ptr %8, align 8, !tbaa !26
  call void @_Z9save_freePKcS0_iPv(ptr noundef %9, ptr noundef %10, i32 noundef %11, ptr noundef %12)
  ret void
}

; Function Attrs: inlinehint mustprogress uwtable
define internal void @_ZL13gmx_snew_implIiEvPKcS1_iRPT_m(ptr noundef %0, ptr noundef %1, i32 noundef %2, ptr noundef nonnull align 8 dereferenceable(8) %3, i64 noundef %4) #5 {
  %6 = alloca ptr, align 8
  %7 = alloca ptr, align 8
  %8 = alloca i32, align 4
  %9 = alloca ptr, align 8
  %10 = alloca i64, align 8
  store ptr %0, ptr %6, align 8, !tbaa !8
  store ptr %1, ptr %7, align 8, !tbaa !8
  store i32 %2, ptr %8, align 4, !tbaa !21
  store ptr %3, ptr %9, align 8, !tbaa !96
  store i64 %4, ptr %10, align 8, !tbaa !85
  %11 = load ptr, ptr %6, align 8, !tbaa !8
  %12 = load ptr, ptr %7, align 8, !tbaa !8
  %13 = load i32, ptr %8, align 4, !tbaa !21
  %14 = load i64, ptr %10, align 8, !tbaa !85
  %15 = call noundef ptr @_Z11save_callocPKcS0_imm(ptr noundef %11, ptr noundef %12, i32 noundef %13, i64 noundef %14, i64 noundef 4)
  %16 = load ptr, ptr %9, align 8, !tbaa !96
  store ptr %15, ptr %16, align 8, !tbaa !26
  ret void
}

; Function Attrs: mustprogress uwtable
define void @_Z13write_pdbfileP8_IO_FILEPKcPK7t_atomsPA3_Kf7PbcTypeS8_ciP12gmx_conect_t(ptr noundef %0, ptr noundef %1, ptr noundef %2, ptr noundef %3, i32 noundef %4, ptr noundef %5, i8 noundef signext %6, i32 noundef %7, ptr noundef %8) #0 {
  %10 = alloca ptr, align 8
  %11 = alloca ptr, align 8
  %12 = alloca ptr, align 8
  %13 = alloca ptr, align 8
  %14 = alloca i32, align 4
  %15 = alloca ptr, align 8
  %16 = alloca i8, align 1
  %17 = alloca i32, align 4
  %18 = alloca ptr, align 8
  %19 = alloca i32, align 4
  %20 = alloca ptr, align 8
  store ptr %0, ptr %10, align 8, !tbaa !13
  store ptr %1, ptr %11, align 8, !tbaa !8
  store ptr %2, ptr %12, align 8, !tbaa !23
  store ptr %3, ptr %13, align 8, !tbaa !17
  store i32 %4, ptr %14, align 4, !tbaa !15
  store ptr %5, ptr %15, align 8, !tbaa !17
  store i8 %6, ptr %16, align 1, !tbaa !25
  store i32 %7, ptr %17, align 4, !tbaa !21
  store ptr %8, ptr %18, align 8, !tbaa !28
  call void @llvm.lifetime.start.p0(i64 4, ptr %19) #15
  call void @llvm.lifetime.start.p0(i64 8, ptr %20) #15
  %21 = load ptr, ptr %12, align 8, !tbaa !23
  %22 = getelementptr inbounds nuw %struct.t_atoms, ptr %21, i32 0, i32 0
  %23 = load i32, ptr %22, align 8, !tbaa !94
  %24 = sext i32 %23 to i64
  call void @_ZL13gmx_snew_implIiEvPKcS1_iRPT_m(ptr noundef @.str.34, ptr noundef @.str.29, i32 noundef 499, ptr noundef nonnull align 8 dereferenceable(8) %20, i64 noundef %24)
  store i32 0, ptr %19, align 4, !tbaa !21
  br label %25

25:                                               ; preds = %37, %9
  %26 = load i32, ptr %19, align 4, !tbaa !21
  %27 = load ptr, ptr %12, align 8, !tbaa !23
  %28 = getelementptr inbounds nuw %struct.t_atoms, ptr %27, i32 0, i32 0
  %29 = load i32, ptr %28, align 8, !tbaa !94
  %30 = icmp slt i32 %26, %29
  br i1 %30, label %31, label %40

31:                                               ; preds = %25
  %32 = load i32, ptr %19, align 4, !tbaa !21
  %33 = load ptr, ptr %20, align 8, !tbaa !26
  %34 = load i32, ptr %19, align 4, !tbaa !21
  %35 = sext i32 %34 to i64
  %36 = getelementptr inbounds i32, ptr %33, i64 %35
  store i32 %32, ptr %36, align 4, !tbaa !21
  br label %37

37:                                               ; preds = %31
  %38 = load i32, ptr %19, align 4, !tbaa !21
  %39 = add nsw i32 %38, 1
  store i32 %39, ptr %19, align 4, !tbaa !21
  br label %25, !llvm.loop !95

40:                                               ; preds = %25
  %41 = load ptr, ptr %10, align 8, !tbaa !13
  %42 = load ptr, ptr %11, align 8, !tbaa !8
  %43 = load ptr, ptr %12, align 8, !tbaa !23
  %44 = load ptr, ptr %13, align 8, !tbaa !17
  %45 = load i32, ptr %14, align 4, !tbaa !15
  %46 = load ptr, ptr %15, align 8, !tbaa !17
  %47 = load i8, ptr %16, align 1, !tbaa !25
  %48 = load i32, ptr %17, align 4, !tbaa !21
  %49 = load ptr, ptr %12, align 8, !tbaa !23
  %50 = getelementptr inbounds nuw %struct.t_atoms, ptr %49, i32 0, i32 0
  %51 = load i32, ptr %50, align 8, !tbaa !94
  %52 = load ptr, ptr %20, align 8, !tbaa !26
  %53 = load ptr, ptr %18, align 8, !tbaa !28
  call void @_Z21write_pdbfile_indexedP8_IO_FILEPKcPK7t_atomsPA3_Kf7PbcTypeS8_ciiPKiP12gmx_conect_tbb(ptr noundef %41, ptr noundef %42, ptr noundef %43, ptr noundef %44, i32 noundef %45, ptr noundef %46, i8 noundef signext %47, i32 noundef %48, i32 noundef %51, ptr noundef %52, ptr noundef %53, i1 noundef zeroext false, i1 noundef zeroext false)
  %54 = load ptr, ptr %20, align 8, !tbaa !26
  call void @_ZL14gmx_sfree_implIiEvPKcS1_iPT_(ptr noundef @.str.34, ptr noundef @.str.29, i32 noundef 506, ptr noundef %54)
  call void @llvm.lifetime.end.p0(i64 8, ptr %20) #15
  call void @llvm.lifetime.end.p0(i64 4, ptr %19) #15
  ret void
}