; Function Attrs: mustprogress uwtable
define void @_Z13write_pdbfileP8_IO_FILEPKcPK7t_atomsPA3_Kf7PbcTypeS8_ciP12gmx_conect_t(ptr noundef captures(none) %0, ptr noundef %1, ptr noundef readonly captures(none) %2, ptr noundef readonly captures(none) %3, i32 noundef %4, ptr noundef %5, i8 noundef signext %6, i32 noundef %7, ptr noundef %8) local_unnamed_addr #1 {
  %10 = load i32, ptr %2, align 8, !tbaa !67
  %11 = sext i32 %10 to i64
  %12 = tail call noundef ptr @_Z11save_callocPKcS0_imm(ptr noundef nonnull @.str.34, ptr noundef nonnull @.str.29, i32 noundef 499, i64 noundef range(i64 -2147483648, 2147483648) %11, i64 noundef 4)
  %13 = load i32, ptr %2, align 8, !tbaa !67
  %14 = icmp sgt i32 %13, 0
  br i1 %14, label %.lr.ph, label %._crit_edge

.lr.ph:                                           ; preds = %9, %.lr.ph
  %indvars.iv = phi i64 [ %indvars.iv.next, %.lr.ph ], [ 0, %9 ]
  %15 = getelementptr inbounds nuw i32, ptr %12, i64 %indvars.iv
  %16 = trunc nuw nsw i64 %indvars.iv to i32
  store i32 %16, ptr %15, align 4, !tbaa !11
  %indvars.iv.next = add nuw nsw i64 %indvars.iv, 1
  %17 = load i32, ptr %2, align 8, !tbaa !67
  %18 = sext i32 %17 to i64
  %19 = icmp slt i64 %indvars.iv.next, %18
  br i1 %19, label %.lr.ph, label %._crit_edge, !llvm.loop !68

._crit_edge:                                      ; preds = %.lr.ph, %9
  %.lcssa = phi i32 [ %13, %9 ], [ %17, %.lr.ph ]
  tail call void @_Z21write_pdbfile_indexedP8_IO_FILEPKcPK7t_atomsPA3_Kf7PbcTypeS8_ciiPKiP12gmx_conect_tbb(ptr noundef %0, ptr noundef %1, ptr noundef nonnull %2, ptr noundef %3, i32 noundef %4, ptr noundef %5, i8 noundef signext %6, i32 noundef %7, i32 noundef %.lcssa, ptr noundef %12, ptr noundef %8, i1 noundef zeroext false, i1 noundef zeroext false)
  tail call void @_Z9save_freePKcS0_iPv(ptr noundef nonnull @.str.34, ptr noundef nonnull @.str.29, i32 noundef 506, ptr noundef %12)
  ret void
}